; Function Attrs: nounwind uwtable
define void @Java_sun_security_smartcardio_PCSC_SCardBeginTransaction(ptr noundef %0, ptr nocapture noundef readnone %1, i64 noundef %2) local_unnamed_addr #0 {
  %4 = load ptr, ptr @scardBeginTransaction, align 8
  %5 = tail call i64 %4(i64 noundef %2) #7
  %6 = icmp eq i64 %5, 0
  br i1 %6, label %handleRV.exit, label %7

7:                                                ; preds = %3
  %8 = load ptr, ptr %0, align 8
  %9 = getelementptr inbounds i8, ptr %8, i64 48
  %10 = load ptr, ptr %9, align 8
  %11 = tail call ptr %10(ptr noundef nonnull %0, ptr noundef nonnull @.str) #7
  %12 = icmp eq ptr %11, null
  br i1 %12, label %handleRV.exit, label %13

13:                                               ; preds = %7
  %14 = load ptr, ptr %0, align 8
  %15 = getelementptr inbounds i8, ptr %14, i64 264
  %16 = load ptr, ptr %15, align 8
  %17 = tail call ptr %16(ptr noundef nonnull %0, ptr noundef nonnull %11, ptr noundef nonnull @.str.1, ptr noundef nonnull @.str.2) #7
  %18 = icmp eq ptr %17, null
  br i1 %18, label %handleRV.exit, label %19

19:                                               ; preds = %13
  %20 = load ptr, ptr %0, align 8
  %21 = getelementptr inbounds i8, ptr %20, i64 224
  %22 = load ptr, ptr %21, align 8
  %23 = trunc i64 %5 to i32
  %24 = tail call ptr (ptr, ptr, ptr, ...) %22(ptr noundef nonnull %0, ptr noundef nonnull %11, ptr noundef nonnull %17, i32 noundef %23) #7
  %.not.i.i = icmp eq ptr %24, null
  br i1 %.not.i.i, label %handleRV.exit, label %25

25:                                               ; preds = %19
  %26 = load ptr, ptr %0, align 8
  %27 = getelementptr inbounds i8, ptr %26, i64 104
  %28 = load ptr, ptr %27, align 8
  %29 = tail call i32 %28(ptr noundef nonnull %0, ptr noundef nonnull %24) #7
  br label %handleRV.exit

handleRV.exit:                                    ; preds = %3, %7, %13, %19, %25
  ret void
}